; Function Attrs: mustprogress nofree norecurse nosync nounwind willreturn memory(argmem: write) uwtable
define dso_local void @_ZNK4llvm17GenericSSAContextINS_15MachineFunctionEE5printEPKNS_12MachineInstrE(ptr dead_on_unwind noalias nocapture writable writeonly sret(%"class.llvm::Printable") align 8 %0, ptr nocapture noundef nonnull readnone align 8 dereferenceable(8) %1, ptr noundef %2) local_unnamed_addr #3 align 2 {
_ZN4llvm9PrintableC2ESt8functionIFvRNS_11raw_ostreamEEE.exit:
  %3 = ptrtoint ptr %2 to i64
  %4 = getelementptr inbounds nuw i8, ptr %0, i64 24
  store ptr @"_ZNSt17_Function_handlerIFvRN4llvm11raw_ostreamEEZNKS0_17GenericSSAContextINS0_15MachineFunctionEE5printEPKNS0_12MachineInstrEE3$_0E9_M_invokeERKSt9_Any_dataS2_", ptr %4, align 8
  %5 = getelementptr inbounds nuw i8, ptr %0, i64 16
  store i64 %3, ptr %0, align 8
  %.sroa.3.0..sroa_idx = getelementptr inbounds i8, ptr %0, i64 8
  store i64 0, ptr %.sroa.3.0..sroa_idx, align 8
  store ptr @"_ZNSt17_Function_handlerIFvRN4llvm11raw_ostreamEEZNKS0_17GenericSSAContextINS0_15MachineFunctionEE5printEPKNS0_12MachineInstrEE3$_0E10_M_managerERSt9_Any_dataRKSC_St18_Manager_operation", ptr %5, align 8
  ret void
}